; Function Attrs: nounwind uwtable
define dso_local i32 @get_typsubscript(i32 noundef %0, ptr noundef writeonly captures(address_is_null) %1) local_unnamed_addr #0 {
  %3 = zext i32 %0 to i64
  %4 = tail call ptr @SearchSysCache1(i32 noundef 82, i64 noundef %3) #8
  %.not = icmp eq ptr %4, null
  br i1 %.not, label %17, label %5

5:                                                ; preds = %2
  %6 = getelementptr i8, ptr %4, i64 16
  %.val = load ptr, ptr %6, align 8
  %7 = getelementptr inbounds nuw i8, ptr %.val, i64 22
  %8 = load i8, ptr %7, align 2
  %9 = zext i8 %8 to i64
  %10 = getelementptr inbounds nuw i8, ptr %.val, i64 %9
  %11 = getelementptr inbounds nuw i8, ptr %10, i64 88
  %12 = load i32, ptr %11, align 4
  %.not14 = icmp eq ptr %1, null
  br i1 %.not14, label %16, label %13

13:                                               ; preds = %5
  %14 = getelementptr inbounds nuw i8, ptr %10, i64 92
  %15 = load i32, ptr %14, align 4
  store i32 %15, ptr %1, align 4
  br label %16

16:                                               ; preds = %13, %5
  tail call void @ReleaseSysCache(ptr noundef nonnull %4) #8
  br label %19

17:                                               ; preds = %2
  %.not13 = icmp eq ptr %1, null
  br i1 %.not13, label %19, label %18

18:                                               ; preds = %17
  store i32 0, ptr %1, align 4
  br label %19

19:                                               ; preds = %17, %18, %16
  %.0 = phi i32 [ %12, %16 ], [ 0, %18 ], [ 0, %17 ]
  ret i32 %.0
}